target datalayout = "e-m:e-p270:32:32-p271:32:32-p272:64:64-i64:64-i128:128-f80:128-n8:16:32:64-S128"
target triple = "x86_64-pc-linux-gnu"

%struct.dt_lib_module_t = type { %struct.dt_action_t, ptr, ptr, ptr, ptr, ptr, ptr, ptr, ptr, ptr, ptr, ptr, ptr, ptr, ptr, ptr, ptr, ptr, ptr, ptr, ptr, ptr, ptr, ptr, ptr, ptr, ptr, ptr, ptr, ptr, ptr, [128 x i8], ptr, ptr, i32, ptr, ptr, ptr, i32 }
%struct.dt_action_t = type { i32, ptr, ptr, ptr, ptr, ptr }
%struct.dt_lib_tagging_t = type { [1024 x i8], ptr, ptr, ptr, ptr, ptr, ptr, ptr, ptr, ptr, ptr, ptr, ptr, ptr, ptr, ptr, ptr, ptr, ptr, ptr, ptr, ptr, i32, i32, i32, i32, i32, ptr, ptr, %struct.anon, i32 }
%struct.anon = type { ptr, ptr, ptr, i32, i32, i32, i32, i32 }
%struct._GtkTreeIter = type { i32, ptr, ptr, ptr }

@.str.5 = private unnamed_addr constant [1 x i8] zeroinitializer, align 1
@.str.33 = private unnamed_addr constant [19 x i8] c"drag-data-received\00", align 1
@.str.64 = private unnamed_addr constant [2 x i8] c"|\00", align 1
@.str.140 = private unnamed_addr constant [5 x i8] c"%s%s\00", align 1

; Function Attrs: nounwind uwtable
define internal void @_event_dnd_received(ptr noundef %0, ptr noundef %1, i32 noundef %2, i32 noundef %3, ptr noundef %4, i32 noundef %5, i32 noundef %6, ptr noundef %7) #0 {
  %9 = alloca ptr, align 8
  %10 = alloca ptr, align 8
  %11 = alloca i32, align 4
  %12 = alloca i32, align 4
  %13 = alloca ptr, align 8
  %14 = alloca i32, align 4
  %15 = alloca i32, align 4
  %16 = alloca ptr, align 8
  %17 = alloca ptr, align 8
  %18 = alloca ptr, align 8
  %19 = alloca i32, align 4
  %20 = alloca ptr, align 8
  %21 = alloca ptr, align 8
  %22 = alloca ptr, align 8
  %23 = alloca %struct._GtkTreeIter, align 8
  %24 = alloca i32, align 4
  %25 = alloca ptr, align 8
  %26 = alloca ptr, align 8
  %27 = alloca i32, align 4
  %28 = alloca ptr, align 8
  %29 = alloca ptr, align 8
  %30 = alloca i32, align 4
  %31 = alloca ptr, align 8
  %32 = alloca %struct._GtkTreeIter, align 8
  %33 = alloca i32, align 4
  store ptr %0, ptr %9, align 8, !tbaa !108
  store ptr %1, ptr %10, align 8, !tbaa !169
  store i32 %2, ptr %11, align 4, !tbaa !31
  store i32 %3, ptr %12, align 4, !tbaa !31
  store ptr %4, ptr %13, align 8, !tbaa !171
  store i32 %5, ptr %14, align 4, !tbaa !31
  store i32 %6, ptr %15, align 4, !tbaa !31
  store ptr %7, ptr %16, align 8, !tbaa !6
  call void @llvm.lifetime.start.p0(i64 8, ptr %17) #11
  %34 = load ptr, ptr %16, align 8, !tbaa !6
  %35 = getelementptr inbounds nuw %struct.dt_lib_module_t, ptr %34, i32 0, i32 30
  %36 = load ptr, ptr %35, align 8, !tbaa !11
  store ptr %36, ptr %17, align 8, !tbaa !19
  call void @llvm.lifetime.start.p0(i64 8, ptr %18) #11
  %37 = load ptr, ptr %9, align 8, !tbaa !108
  %38 = call i64 @gtk_tree_view_get_type() #12
  %39 = call ptr @g_type_check_instance_cast(ptr noundef %37, i64 noundef %38)
  store ptr %39, ptr %18, align 8, !tbaa !35
  %40 = load ptr, ptr %18, align 8, !tbaa !35
  call void @g_signal_stop_emission_by_name(ptr noundef %40, ptr noundef @.str.33)
  call void @llvm.lifetime.start.p0(i64 4, ptr %19) #11
  store i32 0, ptr %19, align 4, !tbaa !31
  %41 = load i32, ptr %14, align 4, !tbaa !31
  %42 = icmp eq i32 %41, 2
  br i1 %42, label %43, label %110

43:                                               ; preds = %8
  call void @llvm.lifetime.start.p0(i64 8, ptr %20) #11
  store ptr null, ptr %20, align 8, !tbaa !138
  %44 = load ptr, ptr %18, align 8, !tbaa !35
  %45 = load i32, ptr %11, align 4, !tbaa !31
  %46 = load i32, ptr %12, align 4, !tbaa !31
  %47 = call i32 @gtk_tree_view_get_path_at_pos(ptr noundef %44, i32 noundef %45, i32 noundef %46, ptr noundef %20, ptr noundef null, ptr noundef null, ptr noundef null)
  %48 = icmp ne i32 %47, 0
  br i1 %48, label %49, label %109

49:                                               ; preds = %43
  call void @llvm.lifetime.start.p0(i64 8, ptr %21) #11
  call void @llvm.lifetime.start.p0(i64 8, ptr %22) #11
  %50 = load ptr, ptr %18, align 8, !tbaa !35
  %51 = call ptr @gtk_tree_view_get_model(ptr noundef %50)
  store ptr %51, ptr %22, align 8, !tbaa !36
  call void @llvm.lifetime.start.p0(i64 32, ptr %23) #11
  %52 = load ptr, ptr %22, align 8, !tbaa !36
  %53 = load ptr, ptr %20, align 8, !tbaa !138
  %54 = call i32 @gtk_tree_model_get_iter(ptr noundef %52, ptr noundef %23, ptr noundef %53)
  %55 = load ptr, ptr %22, align 8, !tbaa !36
  call void (ptr, ptr, ...) @gtk_tree_model_get(ptr noundef %55, ptr noundef %23, i32 noundef 2, ptr noundef %21, i32 noundef -1)
  %56 = load ptr, ptr %16, align 8, !tbaa !6
  call void @_dnd_clear_root(ptr noundef %56)
  call void @llvm.lifetime.start.p0(i64 4, ptr %24) #11
  %57 = load ptr, ptr %21, align 8, !tbaa !49
  %58 = icmp ne ptr %57, null
  br i1 %58, label %59, label %65

59:                                               ; preds = %49
  %60 = load ptr, ptr %21, align 8, !tbaa !49
  %61 = getelementptr inbounds i8, ptr %60, i64 0
  %62 = load i8, ptr %61, align 1, !tbaa !52
  %63 = sext i8 %62 to i32
  %64 = icmp eq i32 %63, 0
  br label %65

65:                                               ; preds = %59, %49
  %66 = phi i1 [ false, %49 ], [ %64, %59 ]
  %67 = zext i1 %66 to i32
  store i32 %67, ptr %24, align 4, !tbaa !31
  call void @llvm.lifetime.start.p0(i64 8, ptr %25) #11
  %68 = load ptr, ptr %17, align 8, !tbaa !19
  %69 = getelementptr inbounds nuw %struct.dt_lib_tagging_t, ptr %68, i32 0, i32 29
  %70 = getelementptr inbounds nuw %struct.anon, ptr %69, i32 0, i32 0
  %71 = load ptr, ptr %70, align 8, !tbaa !124
  %72 = call ptr @g_strrstr(ptr noundef %71, ptr noundef @.str.64)
  store ptr %72, ptr %25, align 8, !tbaa !49
  %73 = load ptr, ptr %25, align 8, !tbaa !49
  %74 = icmp ne ptr %73, null
  br i1 %74, label %75, label %78

75:                                               ; preds = %65
  %76 = load ptr, ptr %25, align 8, !tbaa !49
  %77 = getelementptr inbounds nuw i8, ptr %76, i32 1
  store ptr %77, ptr %25, align 8, !tbaa !49
  br label %78

78:                                               ; preds = %75, %65
  %79 = load i32, ptr %24, align 4, !tbaa !31
  %80 = icmp ne i32 %79, 0
  %81 = select i1 %80, ptr @.str.5, ptr @.str.64
  %82 = load ptr, ptr %25, align 8, !tbaa !49
  %83 = icmp ne ptr %82, null
  br i1 %83, label %84, label %86

84:                                               ; preds = %78
  %85 = load ptr, ptr %25, align 8, !tbaa !49
  br label %91

86:                                               ; preds = %78
  %87 = load ptr, ptr %17, align 8, !tbaa !19
  %88 = getelementptr inbounds nuw %struct.dt_lib_tagging_t, ptr %87, i32 0, i32 29
  %89 = getelementptr inbounds nuw %struct.anon, ptr %88, i32 0, i32 0
  %90 = load ptr, ptr %89, align 8, !tbaa !124
  br label %91

91:                                               ; preds = %86, %84
  %92 = phi ptr [ %85, %84 ], [ %90, %86 ]
  call void (ptr, ptr, ...) @dt_util_str_cat(ptr noundef %21, ptr noundef @.str.140, ptr noundef %81, ptr noundef %92)
  %93 = load ptr, ptr %17, align 8, !tbaa !19
  %94 = getelementptr inbounds nuw %struct.dt_lib_tagging_t, ptr %93, i32 0, i32 29
  %95 = getelementptr inbounds nuw %struct.anon, ptr %94, i32 0, i32 0
  %96 = load ptr, ptr %95, align 8, !tbaa !124
  %97 = load ptr, ptr %21, align 8, !tbaa !49
  %98 = load ptr, ptr %16, align 8, !tbaa !6
  %99 = call i32 @_apply_rename_path(ptr noundef null, ptr noundef %96, ptr noundef %97, ptr noundef %98)
  %100 = load ptr, ptr %21, align 8, !tbaa !49
  call void @g_free(ptr noundef %100)
  %101 = load ptr, ptr %17, align 8, !tbaa !19
  %102 = getelementptr inbounds nuw %struct.dt_lib_tagging_t, ptr %101, i32 0, i32 29
  %103 = getelementptr inbounds nuw %struct.anon, ptr %102, i32 0, i32 0
  %104 = load ptr, ptr %103, align 8, !tbaa !124
  call void @g_free(ptr noundef %104)
  %105 = load ptr, ptr %17, align 8, !tbaa !19
  %106 = getelementptr inbounds nuw %struct.dt_lib_tagging_t, ptr %105, i32 0, i32 29
  %107 = getelementptr inbounds nuw %struct.anon, ptr %106, i32 0, i32 0
  store ptr null, ptr %107, align 8, !tbaa !124
  %108 = load ptr, ptr %20, align 8, !tbaa !138
  call void @gtk_tree_path_free(ptr noundef %108)
  store i32 1, ptr %19, align 4, !tbaa !31
  call void @llvm.lifetime.end.p0(i64 8, ptr %25) #11
  call void @llvm.lifetime.end.p0(i64 4, ptr %24) #11
  call void @llvm.lifetime.end.p0(i64 32, ptr %23) #11
  call void @llvm.lifetime.end.p0(i64 8, ptr %22) #11
  call void @llvm.lifetime.end.p0(i64 8, ptr %21) #11
  br label %109

109:                                              ; preds = %91, %43
  call void @llvm.lifetime.end.p0(i64 8, ptr %20) #11
  br label %178

110:                                              ; preds = %8
  %111 = load i32, ptr %14, align 4, !tbaa !31
  %112 = icmp eq i32 %111, 0
  br i1 %112, label %113, label %177

113:                                              ; preds = %110
  %114 = load ptr, ptr %13, align 8, !tbaa !171
  %115 = icmp ne ptr %114, null
  br i1 %115, label %116, label %177

116:                                              ; preds = %113
  call void @llvm.lifetime.start.p0(i64 8, ptr %26) #11
  store ptr null, ptr %26, align 8, !tbaa !138
  call void @llvm.lifetime.start.p0(i64 4, ptr %27) #11
  %117 = load ptr, ptr %13, align 8, !tbaa !171
  %118 = call i32 @gtk_selection_data_get_length(ptr noundef %117)
  %119 = sext i32 %118 to i64
  %120 = udiv i64 %119, 4
  %121 = trunc i64 %120 to i32
  store i32 %121, ptr %27, align 4, !tbaa !31
  %122 = load i32, ptr %27, align 4, !tbaa !31
  %123 = icmp ne i32 %122, 0
  br i1 %123, label %124, label %176

124:                                              ; preds = %116
  %125 = load ptr, ptr %18, align 8, !tbaa !35
  %126 = load i32, ptr %11, align 4, !tbaa !31
  %127 = load i32, ptr %12, align 4, !tbaa !31
  %128 = call i32 @gtk_tree_view_get_path_at_pos(ptr noundef %125, i32 noundef %126, i32 noundef %127, ptr noundef %26, ptr noundef null, ptr noundef null, ptr noundef null)
  %129 = icmp ne i32 %128, 0
  br i1 %129, label %130, label %176

130:                                              ; preds = %124
  call void @llvm.lifetime.start.p0(i64 8, ptr %28) #11
  %131 = load ptr, ptr %13, align 8, !tbaa !171
  %132 = call ptr @gtk_selection_data_get_data(ptr noundef %131)
  store ptr %132, ptr %28, align 8, !tbaa !63
  call void @llvm.lifetime.start.p0(i64 8, ptr %29) #11
  store ptr null, ptr %29, align 8, !tbaa !32
  call void @llvm.lifetime.start.p0(i64 4, ptr %30) #11
  store i32 0, ptr %30, align 4, !tbaa !31
  br label %133

133:                                              ; preds = %148, %130
  %134 = load i32, ptr %30, align 4, !tbaa !31
  %135 = load i32, ptr %27, align 4, !tbaa !31
  %136 = icmp slt i32 %134, %135
  br i1 %136, label %138, label %137

137:                                              ; preds = %133
  call void @llvm.lifetime.end.p0(i64 4, ptr %30) #11
  br label %151

138:                                              ; preds = %133
  %139 = load ptr, ptr %29, align 8, !tbaa !32
  %140 = load ptr, ptr %28, align 8, !tbaa !63
  %141 = load i32, ptr %30, align 4, !tbaa !31
  %142 = sext i32 %141 to i64
  %143 = getelementptr inbounds i32, ptr %140, i64 %142
  %144 = load i32, ptr %143, align 4, !tbaa !31
  %145 = sext i32 %144 to i64
  %146 = inttoptr i64 %145 to ptr
  %147 = call ptr @g_list_prepend(ptr noundef %139, ptr noundef %146)
  store ptr %147, ptr %29, align 8, !tbaa !32
  br label %148

148:                                              ; preds = %138
  %149 = load i32, ptr %30, align 4, !tbaa !31
  %150 = add nsw i32 %149, 1
  store i32 %150, ptr %30, align 4, !tbaa !31
  br label %133

151:                                              ; preds = %137
  call void @llvm.lifetime.start.p0(i64 8, ptr %31) #11
  %152 = load ptr, ptr %18, align 8, !tbaa !35
  %153 = call ptr @gtk_tree_view_get_model(ptr noundef %152)
  store ptr %153, ptr %31, align 8, !tbaa !36
  call void @llvm.lifetime.start.p0(i64 32, ptr %32) #11
  %154 = load ptr, ptr %31, align 8, !tbaa !36
  %155 = load ptr, ptr %26, align 8, !tbaa !138
  %156 = call i32 @gtk_tree_model_get_iter(ptr noundef %154, ptr noundef %32, ptr noundef %155)
  call void @llvm.lifetime.start.p0(i64 4, ptr %33) #11
  %157 = load ptr, ptr %31, align 8, !tbaa !36
  call void (ptr, ptr, ...) @gtk_tree_model_get(ptr noundef %157, ptr noundef %32, i32 noundef 1, ptr noundef %33, i32 noundef -1)
  %158 = load i32, ptr %33, align 4, !tbaa !31
  %159 = icmp ne i32 %158, 0
  br i1 %159, label %160, label %164

160:                                              ; preds = %151
  %161 = load i32, ptr %33, align 4, !tbaa !31
  %162 = load ptr, ptr %29, align 8, !tbaa !32
  %163 = call i32 @dt_tag_attach_images(i32 noundef %161, ptr noundef %162, i32 noundef 1)
  br label %164

164:                                              ; preds = %160, %151
  %165 = load ptr, ptr %29, align 8, !tbaa !32
  call void @g_list_free(ptr noundef %165)
  %166 = load i32, ptr %33, align 4, !tbaa !31
  %167 = load ptr, ptr %17, align 8, !tbaa !19
  %168 = getelementptr inbounds nuw %struct.dt_lib_tagging_t, ptr %167, i32 0, i32 4
  %169 = load ptr, ptr %168, align 8, !tbaa !40
  %170 = load ptr, ptr %17, align 8, !tbaa !19
  %171 = getelementptr inbounds nuw %struct.dt_lib_tagging_t, ptr %170, i32 0, i32 22
  %172 = load i32, ptr %171, align 8, !tbaa !38
  call void @_update_attached_count(i32 noundef %166, ptr noundef %169, i32 noundef %172)
  %173 = load ptr, ptr %16, align 8, !tbaa !6
  call void @_init_treeview(ptr noundef %173, i32 noundef 0)
  %174 = load ptr, ptr %16, align 8, !tbaa !6
  call void @_raise_signal_tag_changed(ptr noundef %174)
  call void @dt_image_synch_xmp(i32 noundef -1)
  %175 = load ptr, ptr %26, align 8, !tbaa !138
  call void @gtk_tree_path_free(ptr noundef %175)
  store i32 1, ptr %19, align 4, !tbaa !31
  call void @llvm.lifetime.end.p0(i64 4, ptr %33) #11
  call void @llvm.lifetime.end.p0(i64 32, ptr %32) #11
  call void @llvm.lifetime.end.p0(i64 8, ptr %31) #11
  call void @llvm.lifetime.end.p0(i64 8, ptr %29) #11
  call void @llvm.lifetime.end.p0(i64 8, ptr %28) #11
  br label %176

176:                                              ; preds = %164, %124, %116
  call void @llvm.lifetime.end.p0(i64 4, ptr %27) #11
  call void @llvm.lifetime.end.p0(i64 8, ptr %26) #11
  br label %177

177:                                              ; preds = %176, %113, %110
  br label %178

178:                                              ; preds = %177, %109
  %179 = load ptr, ptr %10, align 8, !tbaa !169
  %180 = load i32, ptr %19, align 4, !tbaa !31
  %181 = load i32, ptr %15, align 4, !tbaa !31
  call void @gtk_drag_finish(ptr noundef %179, i32 noundef %180, i32 noundef 0, i32 noundef %181)
  call void @llvm.lifetime.end.p0(i64 4, ptr %19) #11
  call void @llvm.lifetime.end.p0(i64 8, ptr %18) #11
  call void @llvm.lifetime.end.p0(i64 8, ptr %17) #11
  ret void
}