; Function Attrs: nounwind uwtable
define internal void @_event_dnd_received(ptr noundef %0, ptr noundef %1, i32 noundef %2, i32 noundef %3, ptr noundef %4, i32 noundef %5, i32 noundef %6, ptr noundef %7) #1 {
  %9 = alloca ptr, align 8
  %10 = alloca ptr, align 8
  %11 = alloca %struct._GtkTreeIter, align 8
  %12 = alloca ptr, align 8
  %13 = alloca %struct._GtkTreeIter, align 8
  %14 = alloca i32, align 4
  %15 = getelementptr inbounds nuw i8, ptr %7, i64 280
  %16 = load ptr, ptr %15, align 8, !tbaa !6
  %17 = tail call i64 @gtk_tree_view_get_type() #17
  %18 = tail call ptr @g_type_check_instance_cast(ptr noundef %0, i64 noundef %17) #16
  tail call void @g_signal_stop_emission_by_name(ptr noundef %18, ptr noundef nonnull @.str.33) #16
  %19 = icmp eq i32 %5, 2
  br i1 %19, label %20, label %47

20:                                               ; preds = %8
  call void @llvm.lifetime.start.p0(i64 8, ptr nonnull %9) #16
  store ptr null, ptr %9, align 8, !tbaa !113
  %21 = call i32 @gtk_tree_view_get_path_at_pos(ptr noundef %18, i32 noundef %2, i32 noundef %3, ptr noundef nonnull %9, ptr noundef null, ptr noundef null, ptr noundef null) #16
  %.not60 = icmp eq i32 %21, 0
  br i1 %.not60, label %46, label %22

22:                                               ; preds = %20
  call void @llvm.lifetime.start.p0(i64 8, ptr nonnull %10) #16
  %23 = call ptr @gtk_tree_view_get_model(ptr noundef %18) #16
  call void @llvm.lifetime.start.p0(i64 32, ptr nonnull %11) #16
  %24 = load ptr, ptr %9, align 8, !tbaa !113
  %25 = call i32 @gtk_tree_model_get_iter(ptr noundef %23, ptr noundef nonnull %11, ptr noundef %24) #16
  call void (ptr, ptr, ...) @gtk_tree_model_get(ptr noundef %23, ptr noundef nonnull %11, i32 noundef 2, ptr noundef nonnull %10, i32 noundef -1) #16
  %.val = load ptr, ptr %15, align 8, !tbaa !6
  call fastcc void @_dnd_clear_root(ptr %.val)
  %26 = load ptr, ptr %10, align 8, !tbaa !31
  %.not61 = icmp eq ptr %26, null
  br i1 %.not61, label %31, label %27

27:                                               ; preds = %22
  %28 = load i8, ptr %26, align 1, !tbaa !40
  %29 = icmp eq i8 %28, 0
  %30 = select i1 %29, ptr @.str.5, ptr @.str.64
  br label %31

31:                                               ; preds = %27, %22
  %32 = phi ptr [ @.str.64, %22 ], [ %30, %27 ]
  %33 = getelementptr inbounds nuw i8, ptr %16, i64 1232
  %34 = load ptr, ptr %33, align 8, !tbaa !133
  %35 = call ptr @g_strrstr(ptr noundef %34, ptr noundef nonnull @.str.64) #16
  %.not62 = icmp eq ptr %35, null
  %36 = getelementptr inbounds nuw i8, ptr %35, i64 1
  br i1 %.not62, label %37, label %39

37:                                               ; preds = %31
  %38 = load ptr, ptr %33, align 8, !tbaa !133
  br label %39

39:                                               ; preds = %31, %37
  %40 = phi ptr [ %38, %37 ], [ %36, %31 ]
  call void (ptr, ptr, ...) @dt_util_str_cat(ptr noundef nonnull %10, ptr noundef nonnull @.str.140, ptr noundef nonnull %32, ptr noundef %40) #16
  %41 = load ptr, ptr %33, align 8, !tbaa !133
  %42 = load ptr, ptr %10, align 8, !tbaa !31
  call fastcc void @_apply_rename_path(ptr noundef null, ptr noundef %41, ptr noundef %42, ptr noundef nonnull %7)
  %43 = load ptr, ptr %10, align 8, !tbaa !31
  call void @g_free(ptr noundef %43) #16
  %44 = load ptr, ptr %33, align 8, !tbaa !133
  call void @g_free(ptr noundef %44) #16
  store ptr null, ptr %33, align 8, !tbaa !133
  %45 = load ptr, ptr %9, align 8, !tbaa !113
  call void @gtk_tree_path_free(ptr noundef %45) #16
  call void @llvm.lifetime.end.p0(i64 32, ptr nonnull %11) #16
  call void @llvm.lifetime.end.p0(i64 8, ptr nonnull %10) #16
  br label %46

46:                                               ; preds = %39, %20
  %.0 = phi i32 [ 1, %39 ], [ 0, %20 ]
  call void @llvm.lifetime.end.p0(i64 8, ptr nonnull %9) #16
  br label %77

47:                                               ; preds = %8
  %48 = icmp eq i32 %5, 0
  %49 = icmp ne ptr %4, null
  %or.cond = and i1 %49, %48
  br i1 %or.cond, label %50, label %77

50:                                               ; preds = %47
  call void @llvm.lifetime.start.p0(i64 8, ptr nonnull %12) #16
  store ptr null, ptr %12, align 8, !tbaa !113
  %51 = tail call i32 @gtk_selection_data_get_length(ptr noundef nonnull %4) #16
  %52 = ashr i32 %51, 2
  %.not = icmp ult i32 %51, 4
  br i1 %.not, label %76, label %53

53:                                               ; preds = %50
  %54 = call i32 @gtk_tree_view_get_path_at_pos(ptr noundef %18, i32 noundef %2, i32 noundef %3, ptr noundef nonnull %12, ptr noundef null, ptr noundef null, ptr noundef null) #16
  %.not58 = icmp eq i32 %54, 0
  br i1 %.not58, label %76, label %55

55:                                               ; preds = %53
  %56 = call ptr @gtk_selection_data_get_data(ptr noundef nonnull %4) #16
  %57 = icmp sgt i32 %52, 0
  br i1 %57, label %.lr.ph.preheader, label %._crit_edge

.lr.ph.preheader:                                 ; preds = %55
  %wide.trip.count = zext nneg i32 %52 to i64
  br label %.lr.ph

._crit_edge:                                      ; preds = %.lr.ph, %55
  %.049.lcssa = phi ptr [ null, %55 ], [ %66, %.lr.ph ]
  %58 = call ptr @gtk_tree_view_get_model(ptr noundef %18) #16
  call void @llvm.lifetime.start.p0(i64 32, ptr nonnull %13) #16
  %59 = load ptr, ptr %12, align 8, !tbaa !113
  %60 = call i32 @gtk_tree_model_get_iter(ptr noundef %58, ptr noundef nonnull %13, ptr noundef %59) #16
  call void @llvm.lifetime.start.p0(i64 4, ptr nonnull %14) #16
  call void (ptr, ptr, ...) @gtk_tree_model_get(ptr noundef %58, ptr noundef nonnull %13, i32 noundef 1, ptr noundef nonnull %14, i32 noundef -1) #16
  %61 = load i32, ptr %14, align 4, !tbaa !46
  %.not59 = icmp eq i32 %61, 0
  br i1 %.not59, label %69, label %67

.lr.ph:                                           ; preds = %.lr.ph.preheader, %.lr.ph
  %indvars.iv = phi i64 [ 0, %.lr.ph.preheader ], [ %indvars.iv.next, %.lr.ph ]
  %.04964 = phi ptr [ null, %.lr.ph.preheader ], [ %66, %.lr.ph ]
  %62 = getelementptr inbounds nuw i32, ptr %56, i64 %indvars.iv
  %63 = load i32, ptr %62, align 4, !tbaa !46
  %64 = sext i32 %63 to i64
  %65 = inttoptr i64 %64 to ptr
  %66 = call ptr @g_list_prepend(ptr noundef %.04964, ptr noundef %65) #16
  %indvars.iv.next = add nuw nsw i64 %indvars.iv, 1
  %exitcond.not = icmp eq i64 %indvars.iv.next, %wide.trip.count
  br i1 %exitcond.not, label %._crit_edge, label %.lr.ph

67:                                               ; preds = %._crit_edge
  %68 = call i32 @dt_tag_attach_images(i32 noundef %61, ptr noundef %.049.lcssa, i32 noundef 1) #16
  br label %69

69:                                               ; preds = %67, %._crit_edge
  call void @g_list_free(ptr noundef %.049.lcssa) #16
  %70 = load i32, ptr %14, align 4, !tbaa !46
  %71 = getelementptr inbounds nuw i8, ptr %16, i64 1048
  %72 = load ptr, ptr %71, align 8, !tbaa !27
  %73 = getelementptr inbounds nuw i8, ptr %16, i64 1192
  %74 = load i32, ptr %73, align 8, !tbaa !36
  call fastcc void @_update_attached_count(i32 noundef %70, ptr noundef %72, i32 noundef %74)
  call fastcc void @_init_treeview(ptr noundef %7, i32 noundef 0)
  call fastcc void @_raise_signal_tag_changed(ptr noundef %7)
  call void @dt_image_synch_xmp(i32 noundef -1) #16
  %75 = load ptr, ptr %12, align 8, !tbaa !113
  call void @gtk_tree_path_free(ptr noundef %75) #16
  call void @llvm.lifetime.end.p0(i64 4, ptr nonnull %14) #16
  call void @llvm.lifetime.end.p0(i64 32, ptr nonnull %13) #16
  br label %76

76:                                               ; preds = %69, %53, %50
  %.2 = phi i32 [ 1, %69 ], [ 0, %53 ], [ 0, %50 ]
  call void @llvm.lifetime.end.p0(i64 8, ptr nonnull %12) #16
  br label %77

77:                                               ; preds = %47, %76, %46
  %.1 = phi i32 [ %.0, %46 ], [ %.2, %76 ], [ 0, %47 ]
  call void @gtk_drag_finish(ptr noundef %1, i32 noundef %.1, i32 noundef 0, i32 noundef %6) #16
  ret void
}